target datalayout = "e-m:e-p270:32:32-p271:32:32-p272:64:64-i64:64-i128:128-f80:128-n8:16:32:64-S128"
target triple = "x86_64-pc-linux-gnu"

@current_state = internal global i32 0, align 4
@rb_coverage_state.rbimpl_id = internal global i64 0, align 8
@.str.43 = private unnamed_addr constant [5 x i8] c"idle\00", align 1
@rb_coverage_state.rbimpl_id.44 = internal global i64 0, align 8
@.str.45 = private unnamed_addr constant [10 x i8] c"suspended\00", align 1
@rb_coverage_state.rbimpl_id.46 = internal global i64 0, align 8
@.str.47 = private unnamed_addr constant [8 x i8] c"running\00", align 1

; Function Attrs: inlinehint nounwind sspstrong willreturn memory(read) uwtable
define internal i64 @rb_intern_const(ptr noundef nonnull %0) #5 {
  %2 = alloca ptr, align 8
  %3 = alloca i64, align 8
  store ptr %0, ptr %2, align 8, !tbaa !15
  call void @llvm.lifetime.start.p0(i64 8, ptr %3) #16
  %4 = load ptr, ptr %2, align 8, !tbaa !15
  %5 = call i64 @strlen(ptr noundef %4) #20
  store i64 %5, ptr %3, align 8, !tbaa !6
  %6 = load ptr, ptr %2, align 8, !tbaa !15
  %7 = load i64, ptr %3, align 8, !tbaa !6
  %8 = call i64 @rb_intern2(ptr noundef %6, i64 noundef %7)
  call void @llvm.lifetime.end.p0(i64 8, ptr %3) #16
  ret i64 %8
}

; Function Attrs: inlinehint nounwind sspstrong memory(argmem: readwrite, inaccessiblemem: readwrite) uwtable
define internal i64 @rbimpl_intern_const(ptr noundef nonnull %0, ptr noundef nonnull %1) #4 {
  %3 = alloca ptr, align 8
  %4 = alloca ptr, align 8
  store ptr %0, ptr %3, align 8, !tbaa !12
  store ptr %1, ptr %4, align 8, !tbaa !15
  br label %5

5:                                                ; preds = %10, %2
  %6 = load ptr, ptr %3, align 8, !tbaa !12
  %7 = load i64, ptr %6, align 8, !tbaa !6
  %8 = icmp ne i64 %7, 0
  %9 = xor i1 %8, true
  br i1 %9, label %10, label %14

10:                                               ; preds = %5
  %11 = load ptr, ptr %4, align 8, !tbaa !15
  %12 = call i64 @rb_intern_const(ptr noundef %11) #20
  %13 = load ptr, ptr %3, align 8, !tbaa !12
  store i64 %12, ptr %13, align 8, !tbaa !6
  br label %5, !llvm.loop !17

14:                                               ; preds = %5
  %15 = load ptr, ptr %3, align 8, !tbaa !12
  %16 = load i64, ptr %15, align 8, !tbaa !6
  ret i64 %16
}

; Function Attrs: nounwind sspstrong uwtable
define internal i64 @rb_coverage_state(i64 noundef %0) #0 {
  %2 = alloca i64, align 8
  %3 = alloca i64, align 8
  %4 = alloca i64, align 8
  %5 = alloca i64, align 8
  %6 = alloca i64, align 8
  store i64 %0, ptr %3, align 8, !tbaa !6
  %7 = load i32, ptr @current_state, align 4, !tbaa !10
  switch i32 %7, label %20 [
    i32 0, label %8
    i32 1, label %12
    i32 2, label %16
  ]

8:                                                ; preds = %1
  %9 = call i64 @rbimpl_intern_const(ptr noundef @rb_coverage_state.rbimpl_id, ptr noundef @.str.43) #17
  store i64 %9, ptr %4, align 8, !tbaa !6
  %10 = load i64, ptr %4, align 8, !tbaa !6
  %11 = call i64 @rb_id2sym(i64 noundef %10)
  store i64 %11, ptr %2, align 8
  br label %21

12:                                               ; preds = %1
  %13 = call i64 @rbimpl_intern_const(ptr noundef @rb_coverage_state.rbimpl_id.44, ptr noundef @.str.45) #17
  store i64 %13, ptr %5, align 8, !tbaa !6
  %14 = load i64, ptr %5, align 8, !tbaa !6
  %15 = call i64 @rb_id2sym(i64 noundef %14)
  store i64 %15, ptr %2, align 8
  br label %21

16:                                               ; preds = %1
  %17 = call i64 @rbimpl_intern_const(ptr noundef @rb_coverage_state.rbimpl_id.46, ptr noundef @.str.47) #17
  store i64 %17, ptr %6, align 8, !tbaa !6
  %18 = load i64, ptr %6, align 8, !tbaa !6
  %19 = call i64 @rb_id2sym(i64 noundef %18)
  store i64 %19, ptr %2, align 8
  br label %21

20:                                               ; preds = %1
  store i64 4, ptr %2, align 8
  br label %21

21:                                               ; preds = %20, %16, %12, %8
  %22 = load i64, ptr %2, align 8
  ret i64 %22
}