; Function Attrs: nounwind sspstrong uwtable
define internal i64 @rb_coverage_state(i64 %0) #0 {
  %2 = load i32, ptr @current_state, align 4, !tbaa !6
  switch i32 %2, label %default.unreachable [
    i32 0, label %3
    i32 1, label %5
    i32 2, label %7
  ]

3:                                                ; preds = %1
  %.pr.i = load i64, ptr @rb_coverage_state.rbimpl_id, align 8, !tbaa !10
  %.not4.i = icmp eq i64 %.pr.i, 0
  br i1 %.not4.i, label %.lr.ph.i, label %rbimpl_intern_const.exit

.lr.ph.i:                                         ; preds = %3, %.lr.ph.i
  %4 = tail call i64 @rb_intern2(ptr noundef nonnull @.str.43, i64 noundef 4) #9
  store i64 %4, ptr @rb_coverage_state.rbimpl_id, align 8, !tbaa !10
  %.not.i = icmp eq i64 %4, 0
  br i1 %.not.i, label %.lr.ph.i, label %rbimpl_intern_const.exit, !llvm.loop !12

5:                                                ; preds = %1
  %.pr.i4 = load i64, ptr @rb_coverage_state.rbimpl_id.44, align 8, !tbaa !10
  %.not4.i5 = icmp eq i64 %.pr.i4, 0
  br i1 %.not4.i5, label %.lr.ph.i7, label %rbimpl_intern_const.exit

.lr.ph.i7:                                        ; preds = %5, %.lr.ph.i7
  %6 = tail call i64 @rb_intern2(ptr noundef nonnull @.str.45, i64 noundef 9) #9
  store i64 %6, ptr @rb_coverage_state.rbimpl_id.44, align 8, !tbaa !10
  %.not.i8 = icmp eq i64 %6, 0
  br i1 %.not.i8, label %.lr.ph.i7, label %rbimpl_intern_const.exit, !llvm.loop !12

7:                                                ; preds = %1
  %.pr.i10 = load i64, ptr @rb_coverage_state.rbimpl_id.46, align 8, !tbaa !10
  %.not4.i11 = icmp eq i64 %.pr.i10, 0
  br i1 %.not4.i11, label %.lr.ph.i13, label %rbimpl_intern_const.exit

.lr.ph.i13:                                       ; preds = %7, %.lr.ph.i13
  %8 = tail call i64 @rb_intern2(ptr noundef nonnull @.str.47, i64 noundef 7) #9
  store i64 %8, ptr @rb_coverage_state.rbimpl_id.46, align 8, !tbaa !10
  %.not.i14 = icmp eq i64 %8, 0
  br i1 %.not.i14, label %.lr.ph.i13, label %rbimpl_intern_const.exit, !llvm.loop !12

default.unreachable:                              ; preds = %1
  unreachable

rbimpl_intern_const.exit:                         ; preds = %.lr.ph.i13, %.lr.ph.i7, %.lr.ph.i, %7, %5, %3
  %.lcssa.i12.sink = phi i64 [ %.pr.i, %3 ], [ %.pr.i4, %5 ], [ %.pr.i10, %7 ], [ %4, %.lr.ph.i ], [ %6, %.lr.ph.i7 ], [ %8, %.lr.ph.i13 ]
  %9 = tail call i64 @rb_id2sym(i64 noundef %.lcssa.i12.sink) #9
  ret i64 %9
}